target datalayout = "e-m:e-p270:32:32-p271:32:32-p272:64:64-i64:64-i128:128-f80:128-n8:16:32:64-S128"
target triple = "x86_64-pc-linux-gnu"

%struct.H5HF_free_section_t = type { %struct.H5FS_section_info_t, %union.anon }
%struct.H5FS_section_info_t = type { i64, i64, i32, i32 }
%union.anon = type { %struct.anon.1 }
%struct.anon.1 = type { %union.anon.2, i32, i32, i32, ptr, i32, i64, i32, i32, i32, ptr, i32, ptr }
%union.anon.2 = type { ptr }

@H5HF_init_g = external global i8, align 1
@H5_libterm_g = external global i8, align 1
@.str = private unnamed_addr constant [105 x i8] c"generated/home/dtcxzyw/WorkSpace/Projects/compilers/llvm-opt-benchmark/bench/hdf5/hdf5/src/H5HFsection.c\00", align 1
@H5E_HEAP_g = external global i64, align 8
@H5E_CANTRELEASE_g = external global i64, align 8
@.str.6 = private unnamed_addr constant [24 x i8] c"can't free section node\00", align 1
@H5_H5HF_free_section_t_reg_free_list = internal global { i8, [3 x i8], i32, i32, [4 x i8], ptr, i64, ptr } { i8 0, [3 x i8] zeroinitializer, i32 0, i32 0, [4 x i8] zeroinitializer, ptr @.str.17, i64 112, ptr null }, align 8
@H5E_CANTDEC_g = external global i64, align 8
@.str.20 = private unnamed_addr constant [60 x i8] c"can't decrement reference count on section's indirect block\00", align 1
@__func__.H5HF__sect_node_free = private unnamed_addr constant [21 x i8] c"H5HF__sect_node_free\00", align 1
@__func__.H5HF__sect_indirect_free = private unnamed_addr constant [25 x i8] c"H5HF__sect_indirect_free\00", align 1

; Function Attrs: nounwind uwtable
define internal i32 @H5HF__sect_node_free(ptr noundef %0, ptr noundef %1) #0 {
  %3 = alloca ptr, align 8
  %4 = alloca ptr, align 8
  %5 = alloca i32, align 4
  %6 = alloca i8, align 1
  store ptr %0, ptr %3, align 8, !tbaa !23
  store ptr %1, ptr %4, align 8, !tbaa !66
  call void @llvm.lifetime.start.p0(i64 4, ptr %5) #7
  store i32 0, ptr %5, align 4, !tbaa !11
  call void @llvm.lifetime.start.p0(i64 1, ptr %6) #7
  store i8 0, ptr %6, align 1, !tbaa !13
  %7 = load i8, ptr @H5HF_init_g, align 1, !tbaa !13, !range !15, !noundef !16
  %8 = trunc i8 %7 to i1
  br i1 %8, label %13, label %9

9:                                                ; preds = %2
  %10 = load i8, ptr @H5_libterm_g, align 1, !tbaa !13, !range !15, !noundef !16
  %11 = trunc i8 %10 to i1
  %12 = xor i1 %11, true
  br label %13

13:                                               ; preds = %9, %2
  %14 = phi i1 [ true, %2 ], [ %12, %9 ]
  %15 = xor i1 %14, true
  %16 = xor i1 %15, true
  %17 = zext i1 %16 to i32
  %18 = sext i32 %17 to i64
  %19 = call i64 @llvm.expect.i64(i64 %18, i64 1)
  %20 = icmp ne i64 %19, 0
  br i1 %20, label %21, label %52

21:                                               ; preds = %13
  %22 = load ptr, ptr %4, align 8, !tbaa !66
  %23 = icmp ne ptr %22, null
  br i1 %23, label %24, label %48

24:                                               ; preds = %21
  %25 = load ptr, ptr %4, align 8, !tbaa !66
  %26 = call i32 @H5HF__iblock_decr(ptr noundef %25)
  %27 = icmp slt i32 %26, 0
  br i1 %27, label %28, label %47

28:                                               ; preds = %24
  br label %29

29:                                               ; preds = %28
  br label %30

30:                                               ; preds = %29
  br label %31

31:                                               ; preds = %30
  %32 = load i64, ptr @H5E_HEAP_g, align 8, !tbaa !25
  %33 = load i64, ptr @H5E_CANTDEC_g, align 8, !tbaa !25
  %34 = call i32 (ptr, ptr, i32, i64, i64, ptr, ...) @H5E_printf_stack(ptr noundef @.str, ptr noundef @__func__.H5HF__sect_node_free, i32 noundef 413, i64 noundef %32, i64 noundef %33, ptr noundef @.str.20)
  br label %35

35:                                               ; preds = %31
  br label %36

36:                                               ; preds = %35
  store i8 1, ptr %6, align 1, !tbaa !13
  %37 = load i8, ptr %6, align 1, !tbaa !13, !range !15, !noundef !16
  %38 = trunc i8 %37 to i1
  %39 = zext i1 %38 to i8
  store i8 %39, ptr %6, align 1, !tbaa !13
  br label %40

40:                                               ; preds = %36
  br label %41

41:                                               ; preds = %40
  br label %42

42:                                               ; preds = %41
  store i32 -1, ptr %5, align 4, !tbaa !11
  br label %51

43:                                               ; No predecessors!
  br label %44

44:                                               ; preds = %43
  br label %45

45:                                               ; preds = %44
  br label %46

46:                                               ; preds = %45
  br label %47

47:                                               ; preds = %46, %24
  br label %48

48:                                               ; preds = %47, %21
  %49 = load ptr, ptr %3, align 8, !tbaa !23
  %50 = call ptr @H5FL_reg_free(ptr noundef @H5_H5HF_free_section_t_reg_free_list, ptr noundef %49)
  store ptr %50, ptr %3, align 8, !tbaa !23
  br label %51

51:                                               ; preds = %48, %42
  br label %52

52:                                               ; preds = %51, %13
  %53 = load i32, ptr %5, align 4, !tbaa !11
  call void @llvm.lifetime.end.p0(i64 1, ptr %6) #7
  call void @llvm.lifetime.end.p0(i64 4, ptr %5) #7
  ret i32 %53
}

; Function Attrs: nounwind uwtable
define internal i32 @H5HF__sect_indirect_free(ptr noundef %0) #0 {
  %2 = alloca ptr, align 8
  %3 = alloca ptr, align 8
  %4 = alloca i32, align 4
  %5 = alloca i8, align 1
  store ptr %0, ptr %2, align 8, !tbaa !23
  call void @llvm.lifetime.start.p0(i64 8, ptr %3) #7
  store ptr null, ptr %3, align 8, !tbaa !66
  call void @llvm.lifetime.start.p0(i64 4, ptr %4) #7
  store i32 0, ptr %4, align 4, !tbaa !11
  call void @llvm.lifetime.start.p0(i64 1, ptr %5) #7
  store i8 0, ptr %5, align 1, !tbaa !13
  %6 = load i8, ptr @H5HF_init_g, align 1, !tbaa !13, !range !15, !noundef !16
  %7 = trunc i8 %6 to i1
  br i1 %7, label %12, label %8

8:                                                ; preds = %1
  %9 = load i8, ptr @H5_libterm_g, align 1, !tbaa !13, !range !15, !noundef !16
  %10 = trunc i8 %9 to i1
  %11 = xor i1 %10, true
  br label %12

12:                                               ; preds = %8, %1
  %13 = phi i1 [ true, %1 ], [ %11, %8 ]
  %14 = xor i1 %13, true
  %15 = xor i1 %14, true
  %16 = zext i1 %15 to i32
  %17 = sext i32 %16 to i64
  %18 = call i64 @llvm.expect.i64(i64 %17, i64 1)
  %19 = icmp ne i64 %18, 0
  br i1 %19, label %20, label %80

20:                                               ; preds = %12
  %21 = load ptr, ptr %2, align 8, !tbaa !23
  %22 = getelementptr inbounds nuw %struct.H5HF_free_section_t, ptr %21, i32 0, i32 1
  %23 = getelementptr inbounds nuw %struct.anon.1, ptr %22, i32 0, i32 10
  %24 = load ptr, ptr %23, align 8, !tbaa !63
  %25 = call ptr @H5MM_xfree(ptr noundef %24)
  %26 = load ptr, ptr %2, align 8, !tbaa !23
  %27 = getelementptr inbounds nuw %struct.H5HF_free_section_t, ptr %26, i32 0, i32 1
  %28 = getelementptr inbounds nuw %struct.anon.1, ptr %27, i32 0, i32 10
  store ptr %25, ptr %28, align 8, !tbaa !63
  %29 = load ptr, ptr %2, align 8, !tbaa !23
  %30 = getelementptr inbounds nuw %struct.H5HF_free_section_t, ptr %29, i32 0, i32 1
  %31 = getelementptr inbounds nuw %struct.anon.1, ptr %30, i32 0, i32 12
  %32 = load ptr, ptr %31, align 8, !tbaa !63
  %33 = call ptr @H5MM_xfree(ptr noundef %32)
  %34 = load ptr, ptr %2, align 8, !tbaa !23
  %35 = getelementptr inbounds nuw %struct.H5HF_free_section_t, ptr %34, i32 0, i32 1
  %36 = getelementptr inbounds nuw %struct.anon.1, ptr %35, i32 0, i32 12
  store ptr %33, ptr %36, align 8, !tbaa !63
  %37 = load ptr, ptr %2, align 8, !tbaa !23
  %38 = getelementptr inbounds nuw %struct.H5HF_free_section_t, ptr %37, i32 0, i32 0
  %39 = getelementptr inbounds nuw %struct.H5FS_section_info_t, ptr %38, i32 0, i32 3
  %40 = load i32, ptr %39, align 4, !tbaa !38
  %41 = icmp eq i32 %40, 0
  br i1 %41, label %42, label %54

42:                                               ; preds = %20
  %43 = load ptr, ptr %2, align 8, !tbaa !23
  %44 = getelementptr inbounds nuw %struct.H5HF_free_section_t, ptr %43, i32 0, i32 1
  %45 = getelementptr inbounds nuw %struct.anon.1, ptr %44, i32 0, i32 0
  %46 = load ptr, ptr %45, align 8, !tbaa !63
  %47 = icmp ne ptr %46, null
  br i1 %47, label %48, label %53

48:                                               ; preds = %42
  %49 = load ptr, ptr %2, align 8, !tbaa !23
  %50 = getelementptr inbounds nuw %struct.H5HF_free_section_t, ptr %49, i32 0, i32 1
  %51 = getelementptr inbounds nuw %struct.anon.1, ptr %50, i32 0, i32 0
  %52 = load ptr, ptr %51, align 8, !tbaa !63
  store ptr %52, ptr %3, align 8, !tbaa !66
  br label %53

53:                                               ; preds = %48, %42
  br label %54

54:                                               ; preds = %53, %20
  %55 = load ptr, ptr %2, align 8, !tbaa !23
  %56 = load ptr, ptr %3, align 8, !tbaa !66
  %57 = call i32 @H5HF__sect_node_free(ptr noundef %55, ptr noundef %56)
  %58 = icmp slt i32 %57, 0
  br i1 %58, label %59, label %78

59:                                               ; preds = %54
  br label %60

60:                                               ; preds = %59
  br label %61

61:                                               ; preds = %60
  br label %62

62:                                               ; preds = %61
  %63 = load i64, ptr @H5E_HEAP_g, align 8, !tbaa !25
  %64 = load i64, ptr @H5E_CANTRELEASE_g, align 8, !tbaa !25
  %65 = call i32 (ptr, ptr, i32, i64, i64, ptr, ...) @H5E_printf_stack(ptr noundef @.str, ptr noundef @__func__.H5HF__sect_indirect_free, i32 noundef 3797, i64 noundef %63, i64 noundef %64, ptr noundef @.str.6)
  br label %66

66:                                               ; preds = %62
  br label %67

67:                                               ; preds = %66
  store i8 1, ptr %5, align 1, !tbaa !13
  %68 = load i8, ptr %5, align 1, !tbaa !13, !range !15, !noundef !16
  %69 = trunc i8 %68 to i1
  %70 = zext i1 %69 to i8
  store i8 %70, ptr %5, align 1, !tbaa !13
  br label %71

71:                                               ; preds = %67
  br label %72

72:                                               ; preds = %71
  br label %73

73:                                               ; preds = %72
  store i32 -1, ptr %4, align 4, !tbaa !11
  br label %79

74:                                               ; No predecessors!
  br label %75

75:                                               ; preds = %74
  br label %76

76:                                               ; preds = %75
  br label %77

77:                                               ; preds = %76
  br label %78

78:                                               ; preds = %77, %54
  br label %79

79:                                               ; preds = %78, %73
  br label %80

80:                                               ; preds = %79, %12
  %81 = load i32, ptr %4, align 4, !tbaa !11
  call void @llvm.lifetime.end.p0(i64 1, ptr %5) #7
  call void @llvm.lifetime.end.p0(i64 4, ptr %4) #7
  call void @llvm.lifetime.end.p0(i64 8, ptr %3) #7
  ret i32 %81
}