; Function Attrs: nounwind uwtable
define internal fastcc range(i32 -1, 1) i32 @H5HF__sect_indirect_free(ptr noundef %0) unnamed_addr #0 {
  %2 = load i8, ptr @H5HF_init_g, align 1, !tbaa !3, !range !7, !noundef !8
  %3 = trunc nuw i8 %2 to i1
  %4 = load i8, ptr @H5_libterm_g, align 1, !range !7
  %5 = trunc nuw i8 %4 to i1
  %6 = xor i1 %5, true
  %7 = select i1 %3, i1 true, i1 %6
  br i1 %7, label %8, label %H5HF__sect_node_free.exit.thread, !prof !9

8:                                                ; preds = %1
  %9 = getelementptr inbounds nuw i8, ptr %0, i64 88
  %10 = load ptr, ptr %9, align 8, !tbaa !26
  %11 = tail call ptr @H5MM_xfree(ptr noundef %10) #13
  store ptr %11, ptr %9, align 8, !tbaa !26
  %12 = getelementptr inbounds nuw i8, ptr %0, i64 104
  %13 = load ptr, ptr %12, align 8, !tbaa !26
  %14 = tail call ptr @H5MM_xfree(ptr noundef %13) #13
  store ptr %14, ptr %12, align 8, !tbaa !26
  %15 = getelementptr inbounds nuw i8, ptr %0, i64 20
  %16 = load i32, ptr %15, align 4, !tbaa !25
  %17 = icmp eq i32 %16, 0
  br i1 %17, label %18, label %.thread

18:                                               ; preds = %8
  %19 = getelementptr inbounds nuw i8, ptr %0, i64 24
  %20 = load ptr, ptr %19, align 8, !tbaa !26
  %21 = load i8, ptr @H5HF_init_g, align 1, !tbaa !3, !range !7, !noundef !8
  %22 = trunc nuw i8 %21 to i1
  %23 = load i8, ptr @H5_libterm_g, align 1, !range !7
  %24 = trunc nuw i8 %23 to i1
  %25 = xor i1 %24, true
  %26 = select i1 %22, i1 true, i1 %25
  br i1 %26, label %33, label %H5HF__sect_node_free.exit.thread, !prof !9

.thread:                                          ; preds = %8
  %27 = load i8, ptr @H5HF_init_g, align 1, !tbaa !3, !range !7, !noundef !8
  %28 = trunc nuw i8 %27 to i1
  %29 = load i8, ptr @H5_libterm_g, align 1, !range !7
  %30 = trunc nuw i8 %29 to i1
  %31 = xor i1 %30, true
  %32 = select i1 %28, i1 true, i1 %31
  br i1 %32, label %.thread14, label %H5HF__sect_node_free.exit.thread, !prof !9

33:                                               ; preds = %18
  %.not.i = icmp eq ptr %20, null
  br i1 %.not.i, label %.thread14, label %34

34:                                               ; preds = %33
  %35 = tail call i32 @H5HF__iblock_decr(ptr noundef nonnull %20) #13
  %36 = icmp slt i32 %35, 0
  br i1 %36, label %38, label %.thread14

.thread14:                                        ; preds = %.thread, %34, %33
  %37 = tail call ptr @H5FL_reg_free(ptr noundef nonnull @H5_H5HF_free_section_t_reg_free_list, ptr noundef nonnull %0) #13
  br label %H5HF__sect_node_free.exit.thread

38:                                               ; preds = %34
  %39 = load i64, ptr @H5E_HEAP_g, align 8, !tbaa !18
  %40 = load i64, ptr @H5E_CANTDEC_g, align 8, !tbaa !18
  %41 = tail call i32 (ptr, ptr, i32, i64, i64, ptr, ...) @H5E_printf_stack(ptr noundef nonnull @.str, ptr noundef nonnull @__func__.H5HF__sect_node_free, i32 noundef 413, i64 noundef %39, i64 noundef %40, ptr noundef nonnull @.str.20) #13
  %42 = load i64, ptr @H5E_HEAP_g, align 8, !tbaa !18
  %43 = load i64, ptr @H5E_CANTRELEASE_g, align 8, !tbaa !18
  %44 = tail call i32 (ptr, ptr, i32, i64, i64, ptr, ...) @H5E_printf_stack(ptr noundef nonnull @.str, ptr noundef nonnull @__func__.H5HF__sect_indirect_free, i32 noundef 3797, i64 noundef %42, i64 noundef %43, ptr noundef nonnull @.str.6) #13
  br label %H5HF__sect_node_free.exit.thread

H5HF__sect_node_free.exit.thread:                 ; preds = %.thread, %18, %.thread14, %38, %1
  %.0 = phi i32 [ -1, %38 ], [ 0, %1 ], [ 0, %.thread14 ], [ 0, %18 ], [ 0, %.thread ]
  ret i32 %.0
}